target datalayout = "e-m:e-p270:32:32-p271:32:32-p272:64:64-i64:64-i128:128-f80:128-n8:16:32:64-S128"
target triple = "x86_64-pc-linux-gnu"

%"class.icu_77::DayPeriodRules" = type { i8, i8, [24 x i32] }

; Function Attrs: mustprogress uwtable
define noundef i32 @_ZNK6icu_7714DayPeriodRules22getEndHourForDayPeriodENS0_9DayPeriodER10UErrorCode(ptr noundef nonnull align 4 dereferenceable(100) %0, i32 noundef %1, ptr noundef nonnull align 4 dereferenceable(4) %2) #1 align 2 {
  %4 = alloca i32, align 4
  %5 = alloca ptr, align 8
  %6 = alloca i32, align 4
  %7 = alloca ptr, align 8
  %8 = alloca i32, align 4
  %9 = alloca i32, align 4
  %10 = alloca i32, align 4
  store ptr %0, ptr %5, align 8, !tbaa !61
  store i32 %1, ptr %6, align 4, !tbaa !62
  store ptr %2, ptr %7, align 8, !tbaa !22
  %11 = load ptr, ptr %5, align 8
  %12 = load ptr, ptr %7, align 8, !tbaa !22
  %13 = load i32, ptr %12, align 4, !tbaa !15
  %14 = call noundef signext i8 @_ZL9U_FAILURE10UErrorCode(i32 noundef %13)
  %15 = icmp ne i8 %14, 0
  br i1 %15, label %16, label %17

16:                                               ; preds = %3
  store i32 -1, ptr %4, align 4
  br label %84

17:                                               ; preds = %3
  %18 = load i32, ptr %6, align 4, !tbaa !62
  %19 = icmp eq i32 %18, 0
  br i1 %19, label %20, label %21

20:                                               ; preds = %17
  store i32 0, ptr %4, align 4
  br label %84

21:                                               ; preds = %17
  %22 = load i32, ptr %6, align 4, !tbaa !62
  %23 = icmp eq i32 %22, 1
  br i1 %23, label %24, label %25

24:                                               ; preds = %21
  store i32 12, ptr %4, align 4
  br label %84

25:                                               ; preds = %21
  %26 = getelementptr inbounds nuw %"class.icu_77::DayPeriodRules", ptr %11, i32 0, i32 2
  %27 = getelementptr inbounds [24 x i32], ptr %26, i64 0, i64 0
  %28 = load i32, ptr %27, align 4, !tbaa !62
  %29 = load i32, ptr %6, align 4, !tbaa !62
  %30 = icmp eq i32 %28, %29
  br i1 %30, label %31, label %59

31:                                               ; preds = %25
  %32 = getelementptr inbounds nuw %"class.icu_77::DayPeriodRules", ptr %11, i32 0, i32 2
  %33 = getelementptr inbounds [24 x i32], ptr %32, i64 0, i64 23
  %34 = load i32, ptr %33, align 4, !tbaa !62
  %35 = load i32, ptr %6, align 4, !tbaa !62
  %36 = icmp eq i32 %34, %35
  br i1 %36, label %37, label %59

37:                                               ; preds = %31
  call void @llvm.lifetime.start.p0(i64 4, ptr %8) #13
  store i32 1, ptr %8, align 4, !tbaa !14
  br label %38

38:                                               ; preds = %53, %37
  %39 = load i32, ptr %8, align 4, !tbaa !14
  %40 = icmp sle i32 %39, 22
  br i1 %40, label %42, label %41

41:                                               ; preds = %38
  store i32 2, ptr %9, align 4
  br label %56

42:                                               ; preds = %38
  %43 = getelementptr inbounds nuw %"class.icu_77::DayPeriodRules", ptr %11, i32 0, i32 2
  %44 = load i32, ptr %8, align 4, !tbaa !14
  %45 = sext i32 %44 to i64
  %46 = getelementptr inbounds [24 x i32], ptr %43, i64 0, i64 %45
  %47 = load i32, ptr %46, align 4, !tbaa !62
  %48 = load i32, ptr %6, align 4, !tbaa !62
  %49 = icmp ne i32 %47, %48
  br i1 %49, label %50, label %52

50:                                               ; preds = %42
  %51 = load i32, ptr %8, align 4, !tbaa !14
  store i32 %51, ptr %4, align 4
  store i32 1, ptr %9, align 4
  br label %56

52:                                               ; preds = %42
  br label %53

53:                                               ; preds = %52
  %54 = load i32, ptr %8, align 4, !tbaa !14
  %55 = add nsw i32 %54, 1
  store i32 %55, ptr %8, align 4, !tbaa !14
  br label %38, !llvm.loop !72

56:                                               ; preds = %50, %41
  call void @llvm.lifetime.end.p0(i64 4, ptr %8) #13
  %57 = load i32, ptr %9, align 4
  switch i32 %57, label %86 [
    i32 2, label %58
    i32 1, label %84
  ]

58:                                               ; preds = %56
  br label %82

59:                                               ; preds = %31, %25
  call void @llvm.lifetime.start.p0(i64 4, ptr %10) #13
  store i32 23, ptr %10, align 4, !tbaa !14
  br label %60

60:                                               ; preds = %76, %59
  %61 = load i32, ptr %10, align 4, !tbaa !14
  %62 = icmp sge i32 %61, 0
  br i1 %62, label %64, label %63

63:                                               ; preds = %60
  store i32 5, ptr %9, align 4
  br label %79

64:                                               ; preds = %60
  %65 = getelementptr inbounds nuw %"class.icu_77::DayPeriodRules", ptr %11, i32 0, i32 2
  %66 = load i32, ptr %10, align 4, !tbaa !14
  %67 = sext i32 %66 to i64
  %68 = getelementptr inbounds [24 x i32], ptr %65, i64 0, i64 %67
  %69 = load i32, ptr %68, align 4, !tbaa !62
  %70 = load i32, ptr %6, align 4, !tbaa !62
  %71 = icmp eq i32 %69, %70
  br i1 %71, label %72, label %75

72:                                               ; preds = %64
  %73 = load i32, ptr %10, align 4, !tbaa !14
  %74 = add nsw i32 %73, 1
  store i32 %74, ptr %4, align 4
  store i32 1, ptr %9, align 4
  br label %79

75:                                               ; preds = %64
  br label %76

76:                                               ; preds = %75
  %77 = load i32, ptr %10, align 4, !tbaa !14
  %78 = add nsw i32 %77, -1
  store i32 %78, ptr %10, align 4, !tbaa !14
  br label %60, !llvm.loop !73

79:                                               ; preds = %72, %63
  call void @llvm.lifetime.end.p0(i64 4, ptr %10) #13
  %80 = load i32, ptr %9, align 4
  switch i32 %80, label %86 [
    i32 5, label %81
    i32 1, label %84
  ]

81:                                               ; preds = %79
  br label %82

82:                                               ; preds = %81, %58
  %83 = load ptr, ptr %7, align 8, !tbaa !22
  store i32 1, ptr %83, align 4, !tbaa !15
  store i32 -1, ptr %4, align 4
  br label %84

84:                                               ; preds = %82, %79, %56, %24, %20, %16
  %85 = load i32, ptr %4, align 4
  ret i32 %85

86:                                               ; preds = %79, %56
  unreachable
}

; Function Attrs: mustprogress uwtable
define noundef i32 @_ZNK6icu_7714DayPeriodRules24getStartHourForDayPeriodENS0_9DayPeriodER10UErrorCode(ptr noundef nonnull align 4 dereferenceable(100) %0, i32 noundef %1, ptr noundef nonnull align 4 dereferenceable(4) %2) #1 align 2 {
  %4 = alloca i32, align 4
  %5 = alloca ptr, align 8
  %6 = alloca i32, align 4
  %7 = alloca ptr, align 8
  %8 = alloca i32, align 4
  %9 = alloca i32, align 4
  %10 = alloca i32, align 4
  store ptr %0, ptr %5, align 8, !tbaa !61
  store i32 %1, ptr %6, align 4, !tbaa !62
  store ptr %2, ptr %7, align 8, !tbaa !22
  %11 = load ptr, ptr %5, align 8
  %12 = load ptr, ptr %7, align 8, !tbaa !22
  %13 = load i32, ptr %12, align 4, !tbaa !15
  %14 = call noundef signext i8 @_ZL9U_FAILURE10UErrorCode(i32 noundef %13)
  %15 = icmp ne i8 %14, 0
  br i1 %15, label %16, label %17

16:                                               ; preds = %3
  store i32 -1, ptr %4, align 4
  br label %84

17:                                               ; preds = %3
  %18 = load i32, ptr %6, align 4, !tbaa !62
  %19 = icmp eq i32 %18, 0
  br i1 %19, label %20, label %21

20:                                               ; preds = %17
  store i32 0, ptr %4, align 4
  br label %84

21:                                               ; preds = %17
  %22 = load i32, ptr %6, align 4, !tbaa !62
  %23 = icmp eq i32 %22, 1
  br i1 %23, label %24, label %25

24:                                               ; preds = %21
  store i32 12, ptr %4, align 4
  br label %84

25:                                               ; preds = %21
  %26 = getelementptr inbounds nuw %"class.icu_77::DayPeriodRules", ptr %11, i32 0, i32 2
  %27 = getelementptr inbounds [24 x i32], ptr %26, i64 0, i64 0
  %28 = load i32, ptr %27, align 4, !tbaa !62
  %29 = load i32, ptr %6, align 4, !tbaa !62
  %30 = icmp eq i32 %28, %29
  br i1 %30, label %31, label %60

31:                                               ; preds = %25
  %32 = getelementptr inbounds nuw %"class.icu_77::DayPeriodRules", ptr %11, i32 0, i32 2
  %33 = getelementptr inbounds [24 x i32], ptr %32, i64 0, i64 23
  %34 = load i32, ptr %33, align 4, !tbaa !62
  %35 = load i32, ptr %6, align 4, !tbaa !62
  %36 = icmp eq i32 %34, %35
  br i1 %36, label %37, label %60

37:                                               ; preds = %31
  call void @llvm.lifetime.start.p0(i64 4, ptr %8) #13
  store i32 22, ptr %8, align 4, !tbaa !14
  br label %38

38:                                               ; preds = %54, %37
  %39 = load i32, ptr %8, align 4, !tbaa !14
  %40 = icmp sge i32 %39, 1
  br i1 %40, label %42, label %41

41:                                               ; preds = %38
  store i32 2, ptr %9, align 4
  br label %57

42:                                               ; preds = %38
  %43 = getelementptr inbounds nuw %"class.icu_77::DayPeriodRules", ptr %11, i32 0, i32 2
  %44 = load i32, ptr %8, align 4, !tbaa !14
  %45 = sext i32 %44 to i64
  %46 = getelementptr inbounds [24 x i32], ptr %43, i64 0, i64 %45
  %47 = load i32, ptr %46, align 4, !tbaa !62
  %48 = load i32, ptr %6, align 4, !tbaa !62
  %49 = icmp ne i32 %47, %48
  br i1 %49, label %50, label %53

50:                                               ; preds = %42
  %51 = load i32, ptr %8, align 4, !tbaa !14
  %52 = add nsw i32 %51, 1
  store i32 %52, ptr %4, align 4
  store i32 1, ptr %9, align 4
  br label %57

53:                                               ; preds = %42
  br label %54

54:                                               ; preds = %53
  %55 = load i32, ptr %8, align 4, !tbaa !14
  %56 = add nsw i32 %55, -1
  store i32 %56, ptr %8, align 4, !tbaa !14
  br label %38, !llvm.loop !70

57:                                               ; preds = %50, %41
  call void @llvm.lifetime.end.p0(i64 4, ptr %8) #13
  %58 = load i32, ptr %9, align 4
  switch i32 %58, label %86 [
    i32 2, label %59
    i32 1, label %84
  ]

59:                                               ; preds = %57
  br label %82

60:                                               ; preds = %31, %25
  call void @llvm.lifetime.start.p0(i64 4, ptr %10) #13
  store i32 0, ptr %10, align 4, !tbaa !14
  br label %61

61:                                               ; preds = %76, %60
  %62 = load i32, ptr %10, align 4, !tbaa !14
  %63 = icmp sle i32 %62, 23
  br i1 %63, label %65, label %64

64:                                               ; preds = %61
  store i32 5, ptr %9, align 4
  br label %79

65:                                               ; preds = %61
  %66 = getelementptr inbounds nuw %"class.icu_77::DayPeriodRules", ptr %11, i32 0, i32 2
  %67 = load i32, ptr %10, align 4, !tbaa !14
  %68 = sext i32 %67 to i64
  %69 = getelementptr inbounds [24 x i32], ptr %66, i64 0, i64 %68
  %70 = load i32, ptr %69, align 4, !tbaa !62
  %71 = load i32, ptr %6, align 4, !tbaa !62
  %72 = icmp eq i32 %70, %71
  br i1 %72, label %73, label %75

73:                                               ; preds = %65
  %74 = load i32, ptr %10, align 4, !tbaa !14
  store i32 %74, ptr %4, align 4
  store i32 1, ptr %9, align 4
  br label %79

75:                                               ; preds = %65
  br label %76

76:                                               ; preds = %75
  %77 = load i32, ptr %10, align 4, !tbaa !14
  %78 = add nsw i32 %77, 1
  store i32 %78, ptr %10, align 4, !tbaa !14
  br label %61, !llvm.loop !71

79:                                               ; preds = %73, %64
  call void @llvm.lifetime.end.p0(i64 4, ptr %10) #13
  %80 = load i32, ptr %9, align 4
  switch i32 %80, label %86 [
    i32 5, label %81
    i32 1, label %84
  ]

81:                                               ; preds = %79
  br label %82

82:                                               ; preds = %81, %59
  %83 = load ptr, ptr %7, align 8, !tbaa !22
  store i32 1, ptr %83, align 4, !tbaa !15
  store i32 -1, ptr %4, align 4
  br label %84

84:                                               ; preds = %82, %79, %57, %24, %20, %16
  %85 = load i32, ptr %4, align 4
  ret i32 %85

86:                                               ; preds = %79, %57
  unreachable
}

; Function Attrs: inlinehint mustprogress nounwind uwtable
define internal noundef signext i8 @_ZL9U_FAILURE10UErrorCode(i32 noundef %0) #2 {
  %2 = alloca i32, align 4
  store i32 %0, ptr %2, align 4, !tbaa !15
  %3 = load i32, ptr %2, align 4, !tbaa !15
  %4 = icmp sgt i32 %3, 0
  %5 = zext i1 %4 to i8
  ret i8 %5
}

; Function Attrs: mustprogress uwtable
define noundef double @_ZNK6icu_7714DayPeriodRules23getMidPointForDayPeriodENS0_9DayPeriodER10UErrorCode(ptr noundef nonnull align 4 dereferenceable(100) %0, i32 noundef %1, ptr noundef nonnull align 4 dereferenceable(4) %2) #1 align 2 {
  %4 = alloca double, align 8
  %5 = alloca ptr, align 8
  %6 = alloca i32, align 4
  %7 = alloca ptr, align 8
  %8 = alloca i32, align 4
  %9 = alloca i32, align 4
  %10 = alloca i32, align 4
  %11 = alloca double, align 8
  store ptr %0, ptr %5, align 8, !tbaa !61
  store i32 %1, ptr %6, align 4, !tbaa !62
  store ptr %2, ptr %7, align 8, !tbaa !22
  %12 = load ptr, ptr %5, align 8
  %13 = load ptr, ptr %7, align 8, !tbaa !22
  %14 = load i32, ptr %13, align 4, !tbaa !15
  %15 = call noundef signext i8 @_ZL9U_FAILURE10UErrorCode(i32 noundef %14)
  %16 = icmp ne i8 %15, 0
  br i1 %16, label %17, label %18

17:                                               ; preds = %3
  store double -1.000000e+00, ptr %4, align 8
  br label %51

18:                                               ; preds = %3
  call void @llvm.lifetime.start.p0(i64 4, ptr %8) #13
  %19 = load i32, ptr %6, align 4, !tbaa !62
  %20 = load ptr, ptr %7, align 8, !tbaa !22
  %21 = call noundef i32 @_ZNK6icu_7714DayPeriodRules24getStartHourForDayPeriodENS0_9DayPeriodER10UErrorCode(ptr noundef nonnull align 4 dereferenceable(100) %12, i32 noundef %19, ptr noundef nonnull align 4 dereferenceable(4) %20)
  store i32 %21, ptr %8, align 4, !tbaa !14
  call void @llvm.lifetime.start.p0(i64 4, ptr %9) #13
  %22 = load i32, ptr %6, align 4, !tbaa !62
  %23 = load ptr, ptr %7, align 8, !tbaa !22
  %24 = call noundef i32 @_ZNK6icu_7714DayPeriodRules22getEndHourForDayPeriodENS0_9DayPeriodER10UErrorCode(ptr noundef nonnull align 4 dereferenceable(100) %12, i32 noundef %22, ptr noundef nonnull align 4 dereferenceable(4) %23)
  store i32 %24, ptr %9, align 4, !tbaa !14
  %25 = load ptr, ptr %7, align 8, !tbaa !22
  %26 = load i32, ptr %25, align 4, !tbaa !15
  %27 = call noundef signext i8 @_ZL9U_FAILURE10UErrorCode(i32 noundef %26)
  %28 = icmp ne i8 %27, 0
  br i1 %28, label %29, label %30

29:                                               ; preds = %18
  store double -1.000000e+00, ptr %4, align 8
  store i32 1, ptr %10, align 4
  br label %50

30:                                               ; preds = %18
  call void @llvm.lifetime.start.p0(i64 8, ptr %11) #13
  %31 = load i32, ptr %8, align 4, !tbaa !14
  %32 = load i32, ptr %9, align 4, !tbaa !14
  %33 = add nsw i32 %31, %32
  %34 = sitofp i32 %33 to double
  %35 = fdiv double %34, 2.000000e+00
  store double %35, ptr %11, align 8, !tbaa !68
  %36 = load i32, ptr %8, align 4, !tbaa !14
  %37 = load i32, ptr %9, align 4, !tbaa !14
  %38 = icmp sgt i32 %36, %37
  br i1 %38, label %39, label %48

39:                                               ; preds = %30
  %40 = load double, ptr %11, align 8, !tbaa !68
  %41 = fadd double %40, 1.200000e+01
  store double %41, ptr %11, align 8, !tbaa !68
  %42 = load double, ptr %11, align 8, !tbaa !68
  %43 = fcmp oge double %42, 2.400000e+01
  br i1 %43, label %44, label %47

44:                                               ; preds = %39
  %45 = load double, ptr %11, align 8, !tbaa !68
  %46 = fsub double %45, 2.400000e+01
  store double %46, ptr %11, align 8, !tbaa !68
  br label %47

47:                                               ; preds = %44, %39
  br label %48

48:                                               ; preds = %47, %30
  %49 = load double, ptr %11, align 8, !tbaa !68
  store double %49, ptr %4, align 8
  store i32 1, ptr %10, align 4
  call void @llvm.lifetime.end.p0(i64 8, ptr %11) #13
  br label %50

50:                                               ; preds = %48, %29
  call void @llvm.lifetime.end.p0(i64 4, ptr %9) #13
  call void @llvm.lifetime.end.p0(i64 4, ptr %8) #13
  br label %51

51:                                               ; preds = %50, %17
  %52 = load double, ptr %4, align 8
  ret double %52
}