; Function Attrs: mustprogress nofree norecurse nosync nounwind memory(argmem: readwrite) uwtable
define noundef double @_ZNK6icu_7714DayPeriodRules23getMidPointForDayPeriodENS0_9DayPeriodER10UErrorCode(ptr noundef nonnull readonly align 4 captures(none) dereferenceable(100) %0, i32 noundef %1, ptr noundef nonnull align 4 captures(none) dereferenceable(4) %2) local_unnamed_addr #14 align 2 {
  %4 = load i32, ptr %2, align 4, !tbaa !13
  %5 = icmp slt i32 %4, 1
  br i1 %5, label %6, label %_ZNK6icu_7714DayPeriodRules22getEndHourForDayPeriodENS0_9DayPeriodER10UErrorCode.exit.thread54

6:                                                ; preds = %3
  switch i32 %1, label %7 [
    i32 0, label %_ZNK6icu_7714DayPeriodRules22getEndHourForDayPeriodENS0_9DayPeriodER10UErrorCode.exit.thread54
    i32 1, label %_ZNK6icu_7714DayPeriodRules24getStartHourForDayPeriodENS0_9DayPeriodER10UErrorCode.exit.thread45
  ]

_ZNK6icu_7714DayPeriodRules24getStartHourForDayPeriodENS0_9DayPeriodER10UErrorCode.exit.thread45: ; preds = %6
  br label %_ZNK6icu_7714DayPeriodRules22getEndHourForDayPeriodENS0_9DayPeriodER10UErrorCode.exit.thread54

7:                                                ; preds = %6
  %8 = getelementptr inbounds nuw i8, ptr %0, i64 4
  %9 = load i32, ptr %8, align 4, !tbaa !34
  %10 = icmp eq i32 %9, %1
  %11 = getelementptr inbounds nuw i8, ptr %0, i64 96
  %12 = load i32, ptr %11, align 4
  %13 = icmp eq i32 %12, %1
  %or.cond.i = select i1 %10, i1 %13, i1 false
  br i1 %or.cond.i, label %.preheader.i, label %.preheader37.i

.preheader.i:                                     ; preds = %7, %17
  %.02042.i = phi i32 [ %18, %17 ], [ 22, %7 ]
  %14 = zext nneg i32 %.02042.i to i64
  %15 = getelementptr inbounds nuw [24 x i32], ptr %8, i64 0, i64 %14
  %16 = load i32, ptr %15, align 4, !tbaa !34
  %.not24.i = icmp eq i32 %16, %1
  br i1 %.not24.i, label %17, label %20

17:                                               ; preds = %.preheader.i
  %18 = add nsw i32 %.02042.i, -1
  %19 = icmp ugt i32 %.02042.i, 1
  br i1 %19, label %.preheader.i, label %_ZNK6icu_7714DayPeriodRules24getStartHourForDayPeriodENS0_9DayPeriodER10UErrorCode.exit.thread, !llvm.loop !39

20:                                               ; preds = %.preheader.i
  %21 = add nuw nsw i32 %.02042.i, 1
  br label %_ZNK6icu_7714DayPeriodRules24getStartHourForDayPeriodENS0_9DayPeriodER10UErrorCode.exit

.preheader37.i:                                   ; preds = %7, %25
  %indvars.iv.i = phi i64 [ %indvars.iv.next.i, %25 ], [ 0, %7 ]
  %22 = getelementptr inbounds nuw [24 x i32], ptr %8, i64 0, i64 %indvars.iv.i
  %23 = load i32, ptr %22, align 4, !tbaa !34
  %24 = icmp eq i32 %23, %1
  br i1 %24, label %.loopexit.loopexit.i, label %25

25:                                               ; preds = %.preheader37.i
  %indvars.iv.next.i = add nuw nsw i64 %indvars.iv.i, 1
  %exitcond.not.i = icmp eq i64 %indvars.iv.next.i, 24
  br i1 %exitcond.not.i, label %_ZNK6icu_7714DayPeriodRules24getStartHourForDayPeriodENS0_9DayPeriodER10UErrorCode.exit.thread, label %.preheader37.i, !llvm.loop !41

_ZNK6icu_7714DayPeriodRules24getStartHourForDayPeriodENS0_9DayPeriodER10UErrorCode.exit.thread: ; preds = %25, %17
  store i32 1, ptr %2, align 4, !tbaa !13
  br label %_ZNK6icu_7714DayPeriodRules22getEndHourForDayPeriodENS0_9DayPeriodER10UErrorCode.exit.thread54

.loopexit.loopexit.i:                             ; preds = %.preheader37.i
  %26 = trunc nuw nsw i64 %indvars.iv.i to i32
  br label %_ZNK6icu_7714DayPeriodRules24getStartHourForDayPeriodENS0_9DayPeriodER10UErrorCode.exit

_ZNK6icu_7714DayPeriodRules24getStartHourForDayPeriodENS0_9DayPeriodER10UErrorCode.exit: ; preds = %.loopexit.loopexit.i, %20
  %.021.i.ph = phi i32 [ %26, %.loopexit.loopexit.i ], [ %21, %20 ]
  switch i32 %1, label %28 [
    i32 0, label %_ZNK6icu_7714DayPeriodRules22getEndHourForDayPeriodENS0_9DayPeriodER10UErrorCode.exit.thread
    i32 1, label %27
  ]

27:                                               ; preds = %_ZNK6icu_7714DayPeriodRules24getStartHourForDayPeriodENS0_9DayPeriodER10UErrorCode.exit
  br label %_ZNK6icu_7714DayPeriodRules22getEndHourForDayPeriodENS0_9DayPeriodER10UErrorCode.exit.thread

28:                                               ; preds = %_ZNK6icu_7714DayPeriodRules24getStartHourForDayPeriodENS0_9DayPeriodER10UErrorCode.exit
  %29 = getelementptr inbounds nuw i8, ptr %0, i64 4
  %30 = load i32, ptr %29, align 4, !tbaa !34
  %31 = icmp eq i32 %30, %1
  %32 = getelementptr inbounds nuw i8, ptr %0, i64 96
  %33 = load i32, ptr %32, align 4
  %34 = icmp eq i32 %33, %1
  %or.cond.i20 = select i1 %31, i1 %34, i1 false
  br i1 %or.cond.i20, label %.preheader.i23, label %.preheader37.i21

.preheader.i23:                                   ; preds = %28, %37
  %indvars.iv.i24 = phi i64 [ %indvars.iv.next.i27, %37 ], [ 1, %28 ]
  %35 = getelementptr inbounds nuw [24 x i32], ptr %29, i64 0, i64 %indvars.iv.i24
  %36 = load i32, ptr %35, align 4, !tbaa !34
  %.not24.i25 = icmp eq i32 %36, %1
  br i1 %.not24.i25, label %37, label %.loopexit.loopexit.i26

37:                                               ; preds = %.preheader.i23
  %indvars.iv.next.i27 = add nuw nsw i64 %indvars.iv.i24, 1
  %exitcond.not.i28 = icmp eq i64 %indvars.iv.next.i27, 23
  br i1 %exitcond.not.i28, label %.thread.i22, label %.preheader.i23, !llvm.loop !42

.preheader37.i21:                                 ; preds = %28, %42
  %.041.i = phi i32 [ %43, %42 ], [ 23, %28 ]
  %38 = zext nneg i32 %.041.i to i64
  %39 = getelementptr inbounds nuw [24 x i32], ptr %29, i64 0, i64 %38
  %40 = load i32, ptr %39, align 4, !tbaa !34
  %41 = icmp eq i32 %40, %1
  br i1 %41, label %44, label %42

42:                                               ; preds = %.preheader37.i21
  %43 = add nsw i32 %.041.i, -1
  %.not.i = icmp eq i32 %.041.i, 0
  br i1 %.not.i, label %.thread.i22, label %.preheader37.i21, !llvm.loop !43

44:                                               ; preds = %.preheader37.i21
  %45 = add nuw nsw i32 %.041.i, 1
  br label %_ZNK6icu_7714DayPeriodRules22getEndHourForDayPeriodENS0_9DayPeriodER10UErrorCode.exit.thread

.thread.i22:                                      ; preds = %42, %37
  store i32 1, ptr %2, align 4, !tbaa !13
  br label %_ZNK6icu_7714DayPeriodRules22getEndHourForDayPeriodENS0_9DayPeriodER10UErrorCode.exit.thread54

.loopexit.loopexit.i26:                           ; preds = %.preheader.i23
  %46 = trunc nuw nsw i64 %indvars.iv.i24 to i32
  br label %_ZNK6icu_7714DayPeriodRules22getEndHourForDayPeriodENS0_9DayPeriodER10UErrorCode.exit.thread

_ZNK6icu_7714DayPeriodRules22getEndHourForDayPeriodENS0_9DayPeriodER10UErrorCode.exit.thread: ; preds = %.loopexit.loopexit.i26, %44, %27, %_ZNK6icu_7714DayPeriodRules24getStartHourForDayPeriodENS0_9DayPeriodER10UErrorCode.exit
  %.021.i19 = phi i32 [ %45, %44 ], [ %1, %_ZNK6icu_7714DayPeriodRules24getStartHourForDayPeriodENS0_9DayPeriodER10UErrorCode.exit ], [ %46, %.loopexit.loopexit.i26 ], [ 12, %27 ]
  %47 = add nsw i32 %.021.i19, %.021.i.ph
  %48 = sitofp i32 %47 to double
  %49 = fmul double %48, 5.000000e-01
  %50 = icmp sgt i32 %.021.i.ph, %.021.i19
  br i1 %50, label %51, label %_ZNK6icu_7714DayPeriodRules22getEndHourForDayPeriodENS0_9DayPeriodER10UErrorCode.exit.thread54

51:                                               ; preds = %_ZNK6icu_7714DayPeriodRules22getEndHourForDayPeriodENS0_9DayPeriodER10UErrorCode.exit.thread
  %52 = fadd double %49, 1.200000e+01
  %53 = fcmp ult double %52, 2.400000e+01
  br i1 %53, label %_ZNK6icu_7714DayPeriodRules22getEndHourForDayPeriodENS0_9DayPeriodER10UErrorCode.exit.thread54, label %54

54:                                               ; preds = %51
  %55 = fadd double %52, -2.400000e+01
  br label %_ZNK6icu_7714DayPeriodRules22getEndHourForDayPeriodENS0_9DayPeriodER10UErrorCode.exit.thread54

_ZNK6icu_7714DayPeriodRules22getEndHourForDayPeriodENS0_9DayPeriodER10UErrorCode.exit.thread54: ; preds = %6, %_ZNK6icu_7714DayPeriodRules24getStartHourForDayPeriodENS0_9DayPeriodER10UErrorCode.exit.thread45, %_ZNK6icu_7714DayPeriodRules24getStartHourForDayPeriodENS0_9DayPeriodER10UErrorCode.exit.thread, %.thread.i22, %51, %54, %_ZNK6icu_7714DayPeriodRules22getEndHourForDayPeriodENS0_9DayPeriodER10UErrorCode.exit.thread, %3
  %.015 = phi double [ -1.000000e+00, %3 ], [ %55, %54 ], [ %52, %51 ], [ %49, %_ZNK6icu_7714DayPeriodRules22getEndHourForDayPeriodENS0_9DayPeriodER10UErrorCode.exit.thread ], [ -1.000000e+00, %.thread.i22 ], [ -1.000000e+00, %_ZNK6icu_7714DayPeriodRules24getStartHourForDayPeriodENS0_9DayPeriodER10UErrorCode.exit.thread ], [ 0.000000e+00, %6 ], [ 1.200000e+01, %_ZNK6icu_7714DayPeriodRules24getStartHourForDayPeriodENS0_9DayPeriodER10UErrorCode.exit.thread45 ]
  ret double %.015
}